target datalayout = "e-m:e-p270:32:32-p271:32:32-p272:64:64-i64:64-i128:128-f80:128-n8:16:32:64-S128"
target triple = "x86_64-pc-linux-gnu"

%struct.SDL_GUID = type { [16 x i8] }
%struct.SDL_VirtualJoystickDesc = type { i32, i16, i16, i16, i16, i16, i16, i16, i16, i16, i16, [2 x i16], i32, i32, ptr, ptr, ptr, ptr, ptr, ptr, ptr, ptr, ptr, ptr, ptr, ptr }
%struct.joystick_hwdata = type { i32, i8, ptr, i32, %struct.SDL_GUID, %struct.SDL_VirtualJoystickDesc, i32, ptr, ptr, ptr, ptr, ptr, ptr, i8, i32, i32, ptr, ptr, ptr }
%struct.SDL_Joystick = type { i32, ptr, ptr, ptr, %struct.SDL_GUID, i16, i64, i8, i8, i32, ptr, i32, ptr, i32, ptr, i32, ptr, i32, ptr, i32, i32, ptr, i16, i16, i64, i64, i16, i16, i64, i64, i8, i8, i8, i64, i8, i32, i32, i32, i8, i32, ptr, i32, ptr, [3 x [3 x float]], i64, ptr, ptr, i32, i32, ptr }

@.str.16 = private unnamed_addr constant [17 x i8] c"Invalid joystick\00", align 1
@.str.20 = private unnamed_addr constant [18 x i8] c"Invalid hat index\00", align 1

; Function Attrs: nounwind uwtable
define hidden zeroext i1 @SDL_SetJoystickVirtualHatInner(ptr noundef %0, i32 noundef %1, i8 noundef zeroext %2) #0 {
  %4 = alloca i1, align 1
  %5 = alloca ptr, align 8
  %6 = alloca i32, align 4
  %7 = alloca i8, align 1
  %8 = alloca ptr, align 8
  %9 = alloca i32, align 4
  store ptr %0, ptr %5, align 8
  store i32 %1, ptr %6, align 4
  store i8 %2, ptr %7, align 1
  call void @llvm.lifetime.start.p0(i64 8, ptr %8) #7
  call void @SDL_AssertJoysticksLocked()
  %10 = load ptr, ptr %5, align 8
  %11 = icmp ne ptr %10, null
  br i1 %11, label %12, label %17

12:                                               ; preds = %3
  %13 = load ptr, ptr %5, align 8
  %14 = getelementptr inbounds nuw %struct.SDL_Joystick, ptr %13, i32 0, i32 46
  %15 = load ptr, ptr %14, align 8
  %16 = icmp ne ptr %15, null
  br i1 %16, label %19, label %17

17:                                               ; preds = %12, %3
  %18 = call zeroext i1 (ptr, ...) @SDL_SetError_REAL(ptr noundef @.str.16)
  store i1 %18, ptr %4, align 1
  store i32 1, ptr %9, align 4
  br label %47

19:                                               ; preds = %12
  %20 = load ptr, ptr %5, align 8
  %21 = getelementptr inbounds nuw %struct.SDL_Joystick, ptr %20, i32 0, i32 46
  %22 = load ptr, ptr %21, align 8
  store ptr %22, ptr %8, align 8
  %23 = load i32, ptr %6, align 4
  %24 = icmp slt i32 %23, 0
  br i1 %24, label %33, label %25

25:                                               ; preds = %19
  %26 = load i32, ptr %6, align 4
  %27 = load ptr, ptr %8, align 8
  %28 = getelementptr inbounds nuw %struct.joystick_hwdata, ptr %27, i32 0, i32 5
  %29 = getelementptr inbounds nuw %struct.SDL_VirtualJoystickDesc, ptr %28, i32 0, i32 8
  %30 = load i16, ptr %29, align 2
  %31 = zext i16 %30 to i32
  %32 = icmp sge i32 %26, %31
  br i1 %32, label %33, label %35

33:                                               ; preds = %25, %19
  %34 = call zeroext i1 (ptr, ...) @SDL_SetError_REAL(ptr noundef @.str.20)
  store i1 %34, ptr %4, align 1
  store i32 1, ptr %9, align 4
  br label %47

35:                                               ; preds = %25
  %36 = load i8, ptr %7, align 1
  %37 = load ptr, ptr %8, align 8
  %38 = getelementptr inbounds nuw %struct.joystick_hwdata, ptr %37, i32 0, i32 9
  %39 = load ptr, ptr %38, align 8
  %40 = load i32, ptr %6, align 4
  %41 = sext i32 %40 to i64
  %42 = getelementptr inbounds i8, ptr %39, i64 %41
  store i8 %36, ptr %42, align 1
  %43 = load ptr, ptr %8, align 8
  %44 = getelementptr inbounds nuw %struct.joystick_hwdata, ptr %43, i32 0, i32 6
  %45 = load i32, ptr %44, align 8
  %46 = or i32 %45, 8
  store i32 %46, ptr %44, align 8
  store i1 true, ptr %4, align 1
  store i32 1, ptr %9, align 4
  br label %47

47:                                               ; preds = %35, %33, %17
  call void @llvm.lifetime.end.p0(i64 8, ptr %8) #7
  %48 = load i1, ptr %4, align 1
  ret i1 %48
}