; Function Attrs: nounwind uwtable
define hidden zeroext i1 @SDL_SetJoystickVirtualHatInner(ptr noundef readonly captures(address_is_null) %0, i32 noundef %1, i8 noundef zeroext %2) local_unnamed_addr #0 {
  tail call void @SDL_AssertJoysticksLocked() #8
  %.not = icmp eq ptr %0, null
  br i1 %.not, label %7, label %4

4:                                                ; preds = %3
  %5 = getelementptr inbounds nuw i8, ptr %0, i64 328
  %6 = load ptr, ptr %5, align 8
  %.not13 = icmp eq ptr %6, null
  br i1 %.not13, label %7, label %9

7:                                                ; preds = %4, %3
  %8 = tail call zeroext i1 (ptr, ...) @SDL_SetError_REAL(ptr noundef nonnull @.str.16) #8
  br label %25

9:                                                ; preds = %4
  %10 = icmp slt i32 %1, 0
  br i1 %10, label %15, label %11

11:                                               ; preds = %9
  %12 = getelementptr inbounds nuw i8, ptr %6, i64 58
  %13 = load i16, ptr %12, align 2
  %14 = zext i16 %13 to i32
  %.not14 = icmp samesign ult i32 %1, %14
  br i1 %.not14, label %17, label %15

15:                                               ; preds = %11, %9
  %16 = tail call zeroext i1 (ptr, ...) @SDL_SetError_REAL(ptr noundef nonnull @.str.20) #8
  br label %25

17:                                               ; preds = %11
  %18 = getelementptr inbounds nuw i8, ptr %6, i64 200
  %19 = load ptr, ptr %18, align 8
  %20 = zext nneg i32 %1 to i64
  %21 = getelementptr inbounds nuw i8, ptr %19, i64 %20
  store i8 %2, ptr %21, align 1
  %22 = getelementptr inbounds nuw i8, ptr %6, i64 176
  %23 = load i32, ptr %22, align 8
  %24 = or i32 %23, 8
  store i32 %24, ptr %22, align 8
  br label %25

25:                                               ; preds = %17, %15, %7
  %.0 = phi i1 [ %16, %15 ], [ true, %17 ], [ %8, %7 ]
  ret i1 %.0
}